; Function Attrs: null_pointer_is_valid sspstrong uwtable
define hidden ptr @find_oid_by_pres_ctx_id(ptr noundef %0, i32 noundef %1) local_unnamed_addr #0 {
  %3 = alloca %struct._pres_ctx_oid_t, align 8
  call void @llvm.lifetime.start.p0(i64 24, ptr nonnull %3) #7
  store i32 %1, ptr %3, align 8
  %4 = tail call ptr @find_conversation_pinfo(ptr noundef %0, i32 noundef 0)
  %.not = icmp eq ptr %4, null
  br i1 %.not, label %8, label %5

5:                                                ; preds = %2
  %6 = getelementptr inbounds nuw i8, ptr %4, i64 24
  %7 = load i32, ptr %6, align 8
  br label %8

8:                                                ; preds = %2, %5
  %.sink = phi i32 [ %7, %5 ], [ 0, %2 ]
  %9 = getelementptr inbounds nuw i8, ptr %3, i64 16
  store i32 %.sink, ptr %9, align 8
  %10 = load ptr, ptr @pres_ctx_oid_table, align 8
  %11 = call ptr @wmem_map_lookup(ptr noundef %10, ptr noundef nonnull %3)
  %.not10 = icmp eq ptr %11, null
  br i1 %.not10, label %15, label %12

12:                                               ; preds = %8
  %13 = getelementptr inbounds nuw i8, ptr %11, i64 8
  %14 = load ptr, ptr %13, align 8
  br label %find_oid_in_users_table.exit

15:                                               ; preds = %8
  %16 = load i32, ptr @num_pres_users, align 4
  %.not16.i = icmp eq i32 %16, 0
  br i1 %.not16.i, label %find_oid_in_users_table.exit, label %.lr.ph.i

.lr.ph.i:                                         ; preds = %15
  %17 = load ptr, ptr @pres_users, align 8
  %wide.trip.count.i = zext i32 %16 to i64
  br label %19

18:                                               ; preds = %19
  %indvars.iv.next.i = add nuw nsw i64 %indvars.iv.i, 1
  %exitcond.not.i = icmp eq i64 %indvars.iv.next.i, %wide.trip.count.i
  br i1 %exitcond.not.i, label %find_oid_in_users_table.exit, label %19, !llvm.loop !6

19:                                               ; preds = %18, %.lr.ph.i
  %indvars.iv.i = phi i64 [ 0, %.lr.ph.i ], [ %indvars.iv.next.i, %18 ]
  %20 = getelementptr %struct._pres_user_t, ptr %17, i64 %indvars.iv.i
  %21 = load i32, ptr %20, align 8
  %.not.i = icmp eq i32 %21, %1
  br i1 %.not.i, label %.thread.i, label %18

.thread.i:                                        ; preds = %19
  %22 = getelementptr inbounds nuw i8, ptr %20, i64 8
  %23 = load ptr, ptr %22, align 8
  call fastcc void @register_ctx_id_and_oid(ptr noundef %0, i32 noundef %1, ptr noundef %23)
  %24 = load ptr, ptr %22, align 8
  br label %find_oid_in_users_table.exit

find_oid_in_users_table.exit:                     ; preds = %18, %.thread.i, %15, %12
  %.0 = phi ptr [ %14, %12 ], [ %24, %.thread.i ], [ null, %15 ], [ null, %18 ]
  call void @llvm.lifetime.end.p0(i64 24, ptr nonnull %3) #7
  ret ptr %.0
}